
release/Hello:     file format elf32-littlemips


Disassembly of section .text:

10000000 <.text>:
10000000:	3c021000 	lui	v0,0x1000
10000004:	8c430000 	lw	v1,0(v0)
10000008:	8c430000 	lw	v1,0(v0)
1000000c:	1000fffd 	b	0x10000004
10000010:	00000000 	nop
10000014:	00000000 	nop
10000018:	0800000c 	j	0x10000030
1000001c:	00000000 	nop
10000020:	08000062 	j	0x10000188
10000024:	00000000 	nop
10000028:	08000062 	j	0x10000188
1000002c:	00000000 	nop
10000030:	3c1c0000 	lui	gp,0x0
10000034:	379c0000 	ori	gp,gp,0x0
10000038:	3c040000 	lui	a0,0x0
1000003c:	34840000 	ori	a0,a0,0x0
10000040:	3c050000 	lui	a1,0x0
10000044:	34a50000 	ori	a1,a1,0x0
10000048:	3c060000 	lui	a2,0x0
1000004c:	34c60000 	ori	a2,a2,0x0
10000050:	10000007 	b	0x10000070
10000054:	00000000 	nop
10000058:	8c830000 	lw	v1,0(a0)
1000005c:	00000000 	nop
10000060:	acc30000 	sw	v1,0(a2)
10000064:	00000000 	nop
10000068:	24c60004 	addiu	a2,a2,4
1000006c:	24840004 	addiu	a0,a0,4
10000070:	0085182a 	slt	v1,a0,a1
10000074:	1460fff8 	bnez	v1,0x10000058
10000078:	00000000 	nop
1000007c:	3c040000 	lui	a0,0x0
10000080:	34840000 	ori	a0,a0,0x0
10000084:	3c050000 	lui	a1,0x0
10000088:	34a50000 	ori	a1,a1,0x0
1000008c:	3c1d0000 	lui	sp,0x0
10000090:	37bdfff0 	ori	sp,sp,0xfff0
10000094:	10000003 	b	0x100000a4
10000098:	00000000 	nop
1000009c:	ac800000 	sw	zero,0(a0)
100000a0:	24840004 	addiu	a0,a0,4
100000a4:	0085182a 	slt	v1,a0,a1
100000a8:	1460fffc 	bnez	v1,0x1000009c
100000ac:	00000000 	nop
100000b0:	401a6000 	mfc0	k0,c0_sr
100000b4:	375affff 	ori	k0,k0,0xffff
100000b8:	409a6000 	mtc0	k0,c0_sr
100000bc:	00000000 	nop
100000c0:	0c000000 	jal	0x10000000
100000c4:	00000000 	nop
100000c8:	08000032 	j	0x100000c8
100000cc:	8c820000 	lw	v0,0(a0)
100000d0:	03e00008 	jr	ra
100000d4:	00000000 	nop
100000d8:	ac850000 	sw	a1,0(a0)
100000dc:	03e00008 	jr	ra
100000e0:	00000000 	nop
100000e4:	8c820000 	lw	v0,0(a0)
100000e8:	00000000 	nop
100000ec:	00452825 	or	a1,v0,a1
100000f0:	ac850000 	sw	a1,0(a0)
100000f4:	03e00008 	jr	ra
100000f8:	00000000 	nop
100000fc:	8c820000 	lw	v0,0(a0)
10000100:	00000000 	nop
10000104:	00452824 	and	a1,v0,a1
10000108:	ac850000 	sw	a1,0(a0)
1000010c:	03e00008 	jr	ra
10000110:	00000000 	nop
10000114:	8c820000 	lw	v0,0(a0)
10000118:	00000000 	nop
1000011c:	00a21006 	srlv	v0,v0,a1
10000120:	03e00008 	jr	ra
10000124:	30420001 	andi	v0,v0,0x1
10000128:	8c830000 	lw	v1,0(a0)
1000012c:	24020001 	li	v0,1
10000130:	00a22804 	sllv	a1,v0,a1
10000134:	00a32825 	or	a1,a1,v1
10000138:	ac850000 	sw	a1,0(a0)
1000013c:	03e00008 	jr	ra
10000140:	00000000 	nop
10000144:	24020001 	li	v0,1
10000148:	8c830000 	lw	v1,0(a0)
1000014c:	00a22804 	sllv	a1,v0,a1
10000150:	00052827 	nor	a1,zero,a1
10000154:	00a32824 	and	a1,a1,v1
10000158:	ac850000 	sw	a1,0(a0)
1000015c:	03e00008 	jr	ra
10000160:	00000000 	nop
10000164:	8c830000 	lw	v1,0(a0)
10000168:	24020001 	li	v0,1
1000016c:	00a22804 	sllv	a1,v0,a1
10000170:	00a32826 	xor	a1,a1,v1
10000174:	ac850000 	sw	a1,0(a0)
10000178:	03e00008 	jr	ra
1000017c:	00000000 	nop
10000180:	03e00008 	jr	ra
10000184:	00000000 	nop
10000188:	23bdff94 	addi	sp,sp,-108
1000018c:	afa10010 	sw	at,16(sp)
10000190:	afa20014 	sw	v0,20(sp)
10000194:	afa30018 	sw	v1,24(sp)
10000198:	afa4001c 	sw	a0,28(sp)
1000019c:	afa50020 	sw	a1,32(sp)
100001a0:	afa60024 	sw	a2,36(sp)
100001a4:	afa70028 	sw	a3,40(sp)
100001a8:	afa8002c 	sw	t0,44(sp)
100001ac:	afa90030 	sw	t1,48(sp)
100001b0:	afaa0034 	sw	t2,52(sp)
100001b4:	afab0038 	sw	t3,56(sp)
100001b8:	afac003c 	sw	t4,60(sp)
100001bc:	afad0040 	sw	t5,64(sp)
100001c0:	afae0044 	sw	t6,68(sp)
100001c4:	afaf0048 	sw	t7,72(sp)
100001c8:	afb8004c 	sw	t8,76(sp)
100001cc:	afb90050 	sw	t9,80(sp)
100001d0:	afbf0054 	sw	ra,84(sp)
100001d4:	401a7000 	mfc0	k0,c0_epc
100001d8:	235afffc 	addi	k0,k0,-4
100001dc:	afba0058 	sw	k0,88(sp)
100001e0:	3c100100 	lui	s0,0x100
100001e4:	36101ff8 	ori	s0,s0,0x1ff8
100001e8:	ae1a0000 	sw	k0,0(s0)
100001ec:	0000d810 	mfhi	k1
100001f0:	afbb005c 	sw	k1,92(sp)
100001f4:	0000d812 	mflo	k1
100001f8:	afbb0060 	sw	k1,96(sp)
100001fc:	afbe0064 	sw	s8,100(sp)
10000200:	3c080100 	lui	t0,0x100
10000204:	35081ff4 	ori	t0,t0,0x1ff4
10000208:	8d090000 	lw	t1,0(t0)
1000020c:	21290001 	addi	t1,t1,1
10000210:	ad090000 	sw	t1,0(t0)
10000214:	00094880 	sll	t1,t1,0x2
10000218:	01094022 	sub	t0,t0,t1
1000021c:	ad1d0000 	sw	sp,0(t0)
10000220:	3c020100 	lui	v0,0x100
10000224:	34421ffc 	ori	v0,v0,0x1ffc
10000228:	24030001 	li	v1,1
1000022c:	ac430000 	sw	v1,0(v0)
10000230:	0c000060 	jal	0x10000180
10000234:	00000000 	nop
10000238:	23a50000 	addi	a1,sp,0
1000023c:	3c080100 	lui	t0,0x100
10000240:	35081ff4 	ori	t0,t0,0x1ff4
10000244:	8d090000 	lw	t1,0(t0)
10000248:	2129ffff 	addi	t1,t1,-1
1000024c:	ad090000 	sw	t1,0(t0)
10000250:	8fa10010 	lw	at,16(sp)
10000254:	8fa20014 	lw	v0,20(sp)
10000258:	8fa30018 	lw	v1,24(sp)
1000025c:	8fa4001c 	lw	a0,28(sp)
10000260:	8fa50020 	lw	a1,32(sp)
10000264:	8fa60024 	lw	a2,36(sp)
10000268:	8fa70028 	lw	a3,40(sp)
1000026c:	8fa8002c 	lw	t0,44(sp)
10000270:	8fa90030 	lw	t1,48(sp)
10000274:	8faa0034 	lw	t2,52(sp)
10000278:	8fab0038 	lw	t3,56(sp)
1000027c:	8fac003c 	lw	t4,60(sp)
10000280:	8fad0040 	lw	t5,64(sp)
10000284:	8fae0044 	lw	t6,68(sp)
10000288:	8faf0048 	lw	t7,72(sp)
1000028c:	8fb8004c 	lw	t8,76(sp)
10000290:	8fb90050 	lw	t9,80(sp)
10000294:	8fbf0054 	lw	ra,84(sp)
10000298:	8fba0058 	lw	k0,88(sp)
1000029c:	8fbb005c 	lw	k1,92(sp)
100002a0:	03600011 	mthi	k1
100002a4:	8fbb0060 	lw	k1,96(sp)
100002a8:	03600013 	mtlo	k1
100002ac:	8fbe0064 	lw	s8,100(sp)
100002b0:	23bd006c 	addi	sp,sp,108
100002b4:	3c100100 	lui	s0,0x100
100002b8:	36101ffc 	ori	s0,s0,0x1ffc
100002bc:	8e110000 	lw	s1,0(s0)
100002c0:	2231ffff 	addi	s1,s1,-1
100002c4:	03400008 	jr	k0
100002c8:	42000010 	c0	0x10
100002cc:	00000000 	nop
100002d0:	3c100100 	lui	s0,0x100
100002d4:	36101ffc 	ori	s0,s0,0x1ffc
100002d8:	ae000000 	sw	zero,0(s0)
100002dc:	08000002 	j	0x10000008
100002e0:	00000000 	nop
